
build/matmulmulti32:     file format elf32-littleriscv


Disassembly of section .text:

00001000 <multiply>:
    1000:	00050613          	mv	a2,a0
    1004:	00000793          	li	a5,0
    1008:	00000513          	li	a0,0
    100c:	02000813          	li	a6,32
    1010:	40f5d733          	sra	a4,a1,a5
    1014:	00177713          	andi	a4,a4,1
    1018:	00f616b3          	sll	a3,a2,a5
    101c:	00178793          	addi	a5,a5,1
    1020:	00070463          	beqz	a4,1028 <multiply+0x28>
    1024:	00d50533          	add	a0,a0,a3
    1028:	ff0794e3          	bne	a5,a6,1010 <multiply+0x10>
    102c:	00008067          	ret

00001030 <arrEquals>:
    1030:	00000713          	li	a4,0
    1034:	01000613          	li	a2,16
    1038:	00271793          	slli	a5,a4,0x2
    103c:	00f506b3          	add	a3,a0,a5
    1040:	00f587b3          	add	a5,a1,a5
    1044:	0006a683          	lw	a3,0(a3)
    1048:	0007a783          	lw	a5,0(a5)
    104c:	00170713          	addi	a4,a4,1
    1050:	02f69c63          	bne	a3,a5,1088 <arrEquals+0x58>
    1054:	fec712e3          	bne	a4,a2,1038 <arrEquals+0x8>
    1058:	00000713          	li	a4,0
    105c:	01000613          	li	a2,16
    1060:	00271793          	slli	a5,a4,0x2
    1064:	00f506b3          	add	a3,a0,a5
    1068:	00f587b3          	add	a5,a1,a5
    106c:	0406a683          	lw	a3,64(a3)
    1070:	0407a783          	lw	a5,64(a5)
    1074:	00170713          	addi	a4,a4,1
    1078:	00f69863          	bne	a3,a5,1088 <arrEquals+0x58>
    107c:	fec712e3          	bne	a4,a2,1060 <arrEquals+0x30>
    1080:	00100513          	li	a0,1
    1084:	00008067          	ret
    1088:	00000513          	li	a0,0
    108c:	00008067          	ret

00001090 <program_thread0>:
    1090:	ff010113          	addi	sp,sp,-16
    1094:	04100513          	li	a0,65
    1098:	00112623          	sw	ra,12(sp)
    109c:	00812423          	sw	s0,8(sp)
    10a0:	240000ef          	jal	ra,12e0 <putchar>
    10a4:	00a00513          	li	a0,10
    10a8:	238000ef          	jal	ra,12e0 <putchar>
    10ac:	00000293          	li	t0,0
    10b0:	00001e17          	auipc	t3,0x1
    10b4:	360e0e13          	addi	t3,t3,864 # 2410 <a>
    10b8:	00002397          	auipc	t2,0x2
    10bc:	35838393          	addi	t2,t2,856 # 3410 <flag+0x400>
    10c0:	02000813          	li	a6,32
    10c4:	01000f93          	li	t6,16
    10c8:	00800413          	li	s0,8
    10cc:	00000e93          	li	t4,0
    10d0:	00429f13          	slli	t5,t0,0x4
    10d4:	00000893          	li	a7,0
    10d8:	00000313          	li	t1,0
    10dc:	00489793          	slli	a5,a7,0x4
    10e0:	011f0733          	add	a4,t5,a7
    10e4:	01d787b3          	add	a5,a5,t4
    10e8:	00271713          	slli	a4,a4,0x2
    10ec:	00279793          	slli	a5,a5,0x2
    10f0:	00fe07b3          	add	a5,t3,a5
    10f4:	00ee0733          	add	a4,t3,a4
    10f8:	00072503          	lw	a0,0(a4)
    10fc:	00000613          	li	a2,0
    1100:	4007a583          	lw	a1,1024(a5)
    1104:	00000793          	li	a5,0
    1108:	40f5d733          	sra	a4,a1,a5
    110c:	00177713          	andi	a4,a4,1
    1110:	00f516b3          	sll	a3,a0,a5
    1114:	00178793          	addi	a5,a5,1
    1118:	00070463          	beqz	a4,1120 <program_thread0+0x90>
    111c:	00d60633          	add	a2,a2,a3
    1120:	ff0794e3          	bne	a5,a6,1108 <program_thread0+0x78>
    1124:	00188893          	addi	a7,a7,1
    1128:	00c30333          	add	t1,t1,a2
    112c:	fbf898e3          	bne	a7,t6,10dc <program_thread0+0x4c>
    1130:	01df07b3          	add	a5,t5,t4
    1134:	00279793          	slli	a5,a5,0x2
    1138:	00f387b3          	add	a5,t2,a5
    113c:	8067a023          	sw	t1,-2048(a5)
    1140:	001e8e93          	addi	t4,t4,1
    1144:	f91e98e3          	bne	t4,a7,10d4 <program_thread0+0x44>
    1148:	00128293          	addi	t0,t0,1
    114c:	f88290e3          	bne	t0,s0,10cc <program_thread0+0x3c>
    1150:	00002797          	auipc	a5,0x2
    1154:	ec078793          	addi	a5,a5,-320 # 3010 <flag>
    1158:	0007a703          	lw	a4,0(a5)
    115c:	fe070ee3          	beqz	a4,1158 <program_thread0+0xc8>
    1160:	00000793          	li	a5,0
    1164:	00001697          	auipc	a3,0x1
    1168:	e9c68693          	addi	a3,a3,-356 # 2000 <expected>
    116c:	01000613          	li	a2,16
    1170:	00279713          	slli	a4,a5,0x2
    1174:	00e685b3          	add	a1,a3,a4
    1178:	00e38733          	add	a4,t2,a4
    117c:	0005a583          	lw	a1,0(a1)
    1180:	80072703          	lw	a4,-2048(a4)
    1184:	00178793          	addi	a5,a5,1
    1188:	04e59263          	bne	a1,a4,11cc <program_thread0+0x13c>
    118c:	fec792e3          	bne	a5,a2,1170 <program_thread0+0xe0>
    1190:	00000793          	li	a5,0
    1194:	01000613          	li	a2,16
    1198:	00279713          	slli	a4,a5,0x2
    119c:	00e685b3          	add	a1,a3,a4
    11a0:	00e38733          	add	a4,t2,a4
    11a4:	0405a583          	lw	a1,64(a1)
    11a8:	84072703          	lw	a4,-1984(a4)
    11ac:	00178793          	addi	a5,a5,1
    11b0:	00e59e63          	bne	a1,a4,11cc <program_thread0+0x13c>
    11b4:	fec792e3          	bne	a5,a2,1198 <program_thread0+0x108>
    11b8:	00c12083          	lw	ra,12(sp)
    11bc:	00812403          	lw	s0,8(sp)
    11c0:	00000513          	li	a0,0
    11c4:	01010113          	addi	sp,sp,16
    11c8:	00008067          	ret
    11cc:	00c12083          	lw	ra,12(sp)
    11d0:	00812403          	lw	s0,8(sp)
    11d4:	00100513          	li	a0,1
    11d8:	01010113          	addi	sp,sp,16
    11dc:	00008067          	ret

000011e0 <program_thread1>:
    11e0:	ff010113          	addi	sp,sp,-16
    11e4:	04200513          	li	a0,66
    11e8:	00112623          	sw	ra,12(sp)
    11ec:	0f4000ef          	jal	ra,12e0 <putchar>
    11f0:	00a00513          	li	a0,10
    11f4:	0ec000ef          	jal	ra,12e0 <putchar>
    11f8:	00800293          	li	t0,8
    11fc:	00001e17          	auipc	t3,0x1
    1200:	214e0e13          	addi	t3,t3,532 # 2410 <a>
    1204:	00002397          	auipc	t2,0x2
    1208:	20c38393          	addi	t2,t2,524 # 3410 <flag+0x400>
    120c:	02000813          	li	a6,32
    1210:	01000f93          	li	t6,16
    1214:	00000e93          	li	t4,0
    1218:	00429f13          	slli	t5,t0,0x4
    121c:	00000893          	li	a7,0
    1220:	00000313          	li	t1,0
    1224:	00489793          	slli	a5,a7,0x4
    1228:	011f0733          	add	a4,t5,a7
    122c:	01d787b3          	add	a5,a5,t4
    1230:	00271713          	slli	a4,a4,0x2
    1234:	00279793          	slli	a5,a5,0x2
    1238:	00fe07b3          	add	a5,t3,a5
    123c:	00ee0733          	add	a4,t3,a4
    1240:	00072503          	lw	a0,0(a4)
    1244:	00000613          	li	a2,0
    1248:	4007a583          	lw	a1,1024(a5)
    124c:	00000793          	li	a5,0
    1250:	40f5d733          	sra	a4,a1,a5
    1254:	00177713          	andi	a4,a4,1
    1258:	00f516b3          	sll	a3,a0,a5
    125c:	00178793          	addi	a5,a5,1
    1260:	00070463          	beqz	a4,1268 <program_thread1+0x88>
    1264:	00d60633          	add	a2,a2,a3
    1268:	ff0794e3          	bne	a5,a6,1250 <program_thread1+0x70>
    126c:	00188893          	addi	a7,a7,1
    1270:	00c30333          	add	t1,t1,a2
    1274:	fbf898e3          	bne	a7,t6,1224 <program_thread1+0x44>
    1278:	01df07b3          	add	a5,t5,t4
    127c:	00279793          	slli	a5,a5,0x2
    1280:	00f387b3          	add	a5,t2,a5
    1284:	8067a023          	sw	t1,-2048(a5)
    1288:	001e8e93          	addi	t4,t4,1
    128c:	f91e98e3          	bne	t4,a7,121c <program_thread1+0x3c>
    1290:	00128293          	addi	t0,t0,1
    1294:	f9d290e3          	bne	t0,t4,1214 <program_thread1+0x34>
    1298:	00c12083          	lw	ra,12(sp)
    129c:	00100793          	li	a5,1
    12a0:	00002717          	auipc	a4,0x2
    12a4:	d6f72823          	sw	a5,-656(a4) # 3010 <flag>
    12a8:	00000513          	li	a0,0
    12ac:	01010113          	addi	sp,sp,16
    12b0:	00008067          	ret

000012b4 <getchar>:
    12b4:	ff010113          	addi	sp,sp,-16
    12b8:	00812623          	sw	s0,12(sp)
    12bc:	01010413          	addi	s0,sp,16
    12c0:	00001797          	auipc	a5,0x1
    12c4:	14878793          	addi	a5,a5,328 # 2408 <GET_ADDR>
    12c8:	0007a783          	lw	a5,0(a5)
    12cc:	0007a783          	lw	a5,0(a5)
    12d0:	00078513          	mv	a0,a5
    12d4:	00c12403          	lw	s0,12(sp)
    12d8:	01010113          	addi	sp,sp,16
    12dc:	00008067          	ret

000012e0 <putchar>:
    12e0:	fe010113          	addi	sp,sp,-32
    12e4:	00812e23          	sw	s0,28(sp)
    12e8:	02010413          	addi	s0,sp,32
    12ec:	fea42623          	sw	a0,-20(s0)
    12f0:	00001797          	auipc	a5,0x1
    12f4:	11478793          	addi	a5,a5,276 # 2404 <PUT_ADDR>
    12f8:	0007a783          	lw	a5,0(a5)
    12fc:	fec42703          	lw	a4,-20(s0)
    1300:	00e7a023          	sw	a4,0(a5)
    1304:	fec42783          	lw	a5,-20(s0)
    1308:	00078513          	mv	a0,a5
    130c:	01c12403          	lw	s0,28(sp)
    1310:	02010113          	addi	sp,sp,32
    1314:	00008067          	ret

00001318 <exit>:
    1318:	fe010113          	addi	sp,sp,-32
    131c:	00812e23          	sw	s0,28(sp)
    1320:	02010413          	addi	s0,sp,32
    1324:	fea42623          	sw	a0,-20(s0)
    1328:	00001797          	auipc	a5,0x1
    132c:	0e478793          	addi	a5,a5,228 # 240c <FINISH_ADDR>
    1330:	0007a783          	lw	a5,0(a5)
    1334:	fec42703          	lw	a4,-20(s0)
    1338:	00e7a023          	sw	a4,0(a5)
    133c:	fec42783          	lw	a5,-20(s0)
    1340:	00078513          	mv	a0,a5
    1344:	01c12403          	lw	s0,28(sp)
    1348:	02010113          	addi	sp,sp,32
    134c:	00008067          	ret

Disassembly of section .text.startup:

00001350 <main>:
    1350:	00000693          	li	a3,0
    1354:	00001897          	auipc	a7,0x1
    1358:	0bc88893          	addi	a7,a7,188 # 2410 <a>
    135c:	01000813          	li	a6,16
    1360:	00000713          	li	a4,0
    1364:	00469593          	slli	a1,a3,0x4
    1368:	00e587b3          	add	a5,a1,a4
    136c:	00279793          	slli	a5,a5,0x2
    1370:	00f887b3          	add	a5,a7,a5
    1374:	00d70633          	add	a2,a4,a3
    1378:	00d7a023          	sw	a3,0(a5)
    137c:	40c7a023          	sw	a2,1024(a5)
    1380:	00170713          	addi	a4,a4,1
    1384:	ff0712e3          	bne	a4,a6,1368 <main+0x18>
    1388:	00168693          	addi	a3,a3,1
    138c:	fce69ae3          	bne	a3,a4,1360 <main+0x10>
    1390:	00051463          	bnez	a0,1398 <main+0x48>
    1394:	cfdff06f          	j	1090 <program_thread0>
    1398:	e49ff06f          	j	11e0 <program_thread1>

Disassembly of section .text.init:

00000000 <_start>:
   0:	00000093          	li	ra,0
   4:	00000113          	li	sp,0
   8:	00000193          	li	gp,0
   c:	00000213          	li	tp,0
  10:	00000293          	li	t0,0
  14:	00000313          	li	t1,0
  18:	00000393          	li	t2,0
  1c:	00000413          	li	s0,0
  20:	00000493          	li	s1,0
  24:	00000593          	li	a1,0
  28:	00000613          	li	a2,0
  2c:	00000693          	li	a3,0
  30:	00000713          	li	a4,0
  34:	00000793          	li	a5,0
  38:	00000813          	li	a6,0
  3c:	00000893          	li	a7,0
  40:	00000913          	li	s2,0
  44:	00000993          	li	s3,0
  48:	00000a13          	li	s4,0
  4c:	00000a93          	li	s5,0
  50:	00000b13          	li	s6,0
  54:	00000b93          	li	s7,0
  58:	00000c13          	li	s8,0
  5c:	00000c93          	li	s9,0
  60:	00000d13          	li	s10,0
  64:	00000d93          	li	s11,0
  68:	00000e13          	li	t3,0
  6c:	00000e93          	li	t4,0
  70:	00000f13          	li	t5,0
  74:	00000f93          	li	t6,0
  78:	00051663          	bnez	a0,84 <nextstack>
  7c:	10000137          	lui	sp,0x10000
  80:	ff010113          	addi	sp,sp,-16 # ffffff0 <flag+0xfffcfe0>

00000084 <nextstack>:
  84:	00050463          	beqz	a0,8c <skip>
  88:	0f000137          	lui	sp,0xf000

0000008c <skip>:
  8c:	2c4010ef          	jal	ra,1350 <main>
  90:	288010ef          	jal	ra,1318 <exit>
  94:	0000006f          	j	94 <skip+0x8>
