
build/multicore32:     file format elf32-littleriscv


Disassembly of section .text:

00001000 <program_thread0>:
    1000:	ff010113          	addi	sp,sp,-16
    1004:	00112623          	sw	ra,12(sp)
    1008:	00812423          	sw	s0,8(sp)
    100c:	00912223          	sw	s1,4(sp)
    1010:	00000793          	li	a5,0
    1014:	00001517          	auipc	a0,0x1
    1018:	fec50513          	addi	a0,a0,-20 # 2000 <input_data>
    101c:	00001697          	auipc	a3,0x1
    1020:	01868693          	addi	a3,a3,24 # 2034 <acc_thread0>
    1024:	00400593          	li	a1,4
    1028:	00279713          	slli	a4,a5,0x2
    102c:	00e50733          	add	a4,a0,a4
    1030:	00072603          	lw	a2,0(a4)
    1034:	0006a703          	lw	a4,0(a3)
    1038:	00178793          	addi	a5,a5,1
    103c:	00c70733          	add	a4,a4,a2
    1040:	00e6a023          	sw	a4,0(a3)
    1044:	feb792e3          	bne	a5,a1,1028 <program_thread0+0x28>
    1048:	00001717          	auipc	a4,0x1
    104c:	ff070713          	addi	a4,a4,-16 # 2038 <flag>
    1050:	00072783          	lw	a5,0(a4)
    1054:	fe078ee3          	beqz	a5,1050 <program_thread0+0x50>
    1058:	00072783          	lw	a5,0(a4)
    105c:	0006a683          	lw	a3,0(a3)
    1060:	01c00713          	li	a4,28
    1064:	00d787b3          	add	a5,a5,a3
    1068:	04e78063          	beq	a5,a4,10a8 <program_thread0+0xa8>
    106c:	00001497          	auipc	s1,0x1
    1070:	fb448493          	addi	s1,s1,-76 # 2020 <f>
    1074:	0004a403          	lw	s0,0(s1)
    1078:	00044503          	lbu	a0,0(s0)
    107c:	00140413          	addi	s0,s0,1
    1080:	0c4000ef          	jal	ra,1144 <putchar>
    1084:	0004a783          	lw	a5,0(s1)
    1088:	00878793          	addi	a5,a5,8
    108c:	fef466e3          	bltu	s0,a5,1078 <program_thread0+0x78>
    1090:	00c12083          	lw	ra,12(sp)
    1094:	00812403          	lw	s0,8(sp)
    1098:	00412483          	lw	s1,4(sp)
    109c:	00100513          	li	a0,1
    10a0:	01010113          	addi	sp,sp,16
    10a4:	00008067          	ret
    10a8:	00001497          	auipc	s1,0x1
    10ac:	f7c48493          	addi	s1,s1,-132 # 2024 <s>
    10b0:	0004a403          	lw	s0,0(s1)
    10b4:	00044503          	lbu	a0,0(s0)
    10b8:	00140413          	addi	s0,s0,1
    10bc:	088000ef          	jal	ra,1144 <putchar>
    10c0:	0004a783          	lw	a5,0(s1)
    10c4:	00878793          	addi	a5,a5,8
    10c8:	fef466e3          	bltu	s0,a5,10b4 <program_thread0+0xb4>
    10cc:	00c12083          	lw	ra,12(sp)
    10d0:	00812403          	lw	s0,8(sp)
    10d4:	00412483          	lw	s1,4(sp)
    10d8:	00000513          	li	a0,0
    10dc:	01010113          	addi	sp,sp,16
    10e0:	00008067          	ret

000010e4 <program_thread1>:
    10e4:	00001717          	auipc	a4,0x1
    10e8:	f1c70713          	addi	a4,a4,-228 # 2000 <input_data>
    10ec:	01072783          	lw	a5,16(a4)
    10f0:	01472603          	lw	a2,20(a4)
    10f4:	01872683          	lw	a3,24(a4)
    10f8:	01c72703          	lw	a4,28(a4)
    10fc:	00c787b3          	add	a5,a5,a2
    1100:	00d787b3          	add	a5,a5,a3
    1104:	00e787b3          	add	a5,a5,a4
    1108:	00001717          	auipc	a4,0x1
    110c:	f2f72823          	sw	a5,-208(a4) # 2038 <flag>
    1110:	00000513          	li	a0,0
    1114:	00008067          	ret

00001118 <getchar>:
    1118:	ff010113          	addi	sp,sp,-16
    111c:	00812623          	sw	s0,12(sp)
    1120:	01010413          	addi	s0,sp,16
    1124:	00001797          	auipc	a5,0x1
    1128:	f0878793          	addi	a5,a5,-248 # 202c <GET_ADDR>
    112c:	0007a783          	lw	a5,0(a5)
    1130:	0007a783          	lw	a5,0(a5)
    1134:	00078513          	mv	a0,a5
    1138:	00c12403          	lw	s0,12(sp)
    113c:	01010113          	addi	sp,sp,16
    1140:	00008067          	ret

00001144 <putchar>:
    1144:	fe010113          	addi	sp,sp,-32
    1148:	00812e23          	sw	s0,28(sp)
    114c:	02010413          	addi	s0,sp,32
    1150:	fea42623          	sw	a0,-20(s0)
    1154:	00001797          	auipc	a5,0x1
    1158:	ed478793          	addi	a5,a5,-300 # 2028 <PUT_ADDR>
    115c:	0007a783          	lw	a5,0(a5)
    1160:	fec42703          	lw	a4,-20(s0)
    1164:	00e7a023          	sw	a4,0(a5)
    1168:	fec42783          	lw	a5,-20(s0)
    116c:	00078513          	mv	a0,a5
    1170:	01c12403          	lw	s0,28(sp)
    1174:	02010113          	addi	sp,sp,32
    1178:	00008067          	ret

0000117c <exit>:
    117c:	fe010113          	addi	sp,sp,-32
    1180:	00812e23          	sw	s0,28(sp)
    1184:	02010413          	addi	s0,sp,32
    1188:	fea42623          	sw	a0,-20(s0)
    118c:	00001797          	auipc	a5,0x1
    1190:	ea478793          	addi	a5,a5,-348 # 2030 <FINISH_ADDR>
    1194:	0007a783          	lw	a5,0(a5)
    1198:	fec42703          	lw	a4,-20(s0)
    119c:	00e7a023          	sw	a4,0(a5)
    11a0:	fec42783          	lw	a5,-20(s0)
    11a4:	00078513          	mv	a0,a5
    11a8:	01c12403          	lw	s0,28(sp)
    11ac:	02010113          	addi	sp,sp,32
    11b0:	00008067          	ret

Disassembly of section .text.startup:

000011b4 <main>:
    11b4:	02050c63          	beqz	a0,11ec <main+0x38>
    11b8:	00001717          	auipc	a4,0x1
    11bc:	e4870713          	addi	a4,a4,-440 # 2000 <input_data>
    11c0:	01072783          	lw	a5,16(a4)
    11c4:	01472603          	lw	a2,20(a4)
    11c8:	01872683          	lw	a3,24(a4)
    11cc:	01c72703          	lw	a4,28(a4)
    11d0:	00c787b3          	add	a5,a5,a2
    11d4:	00d787b3          	add	a5,a5,a3
    11d8:	00e787b3          	add	a5,a5,a4
    11dc:	00001717          	auipc	a4,0x1
    11e0:	e4f72e23          	sw	a5,-420(a4) # 2038 <flag>
    11e4:	00000513          	li	a0,0
    11e8:	00008067          	ret
    11ec:	e15ff06f          	j	1000 <program_thread0>

Disassembly of section .rodata.str1.4:

000011f0 <.rodata.str1.4>:
    11f0:	6146                	flw	ft2,80(sp)
    11f2:	6c69                	lui	s8,0x1a
    11f4:	7275                	lui	tp,0xffffd
    11f6:	0a65                	addi	s4,s4,25
    11f8:	0000                	unimp
    11fa:	0000                	unimp
    11fc:	63637553          	0x63637553
    1200:	7365                	lui	t1,0xffff9
    1202:	          	0xa73

Disassembly of section .data:

00002000 <input_data>:
    2000:	0000                	unimp
    2002:	0000                	unimp
    2004:	0001                	nop
    2006:	0000                	unimp
    2008:	0002                	c.slli64	zero
    200a:	0000                	unimp
    200c:	00000003          	lb	zero,0(zero) # 0 <_start>
    2010:	0004                	0x4
    2012:	0000                	unimp
    2014:	0005                	c.nop	1
    2016:	0000                	unimp
    2018:	0006                	c.slli	zero,0x1
    201a:	0000                	unimp
    201c:	00000007          	0x7

Disassembly of section .sdata:

00002020 <f>:
    2020:	11f0                	addi	a2,sp,236
	...

00002024 <s>:
    2024:	11fc                	addi	a5,sp,236
	...

00002028 <PUT_ADDR>:
    2028:	fff0                	fsw	fa2,124(a5)
    202a:	f000                	fsw	fs0,32(s0)

0000202c <GET_ADDR>:
    202c:	fff4                	fsw	fa3,124(a5)
    202e:	f000                	fsw	fs0,32(s0)

00002030 <FINISH_ADDR>:
    2030:	fff8                	fsw	fa4,124(a5)
    2032:	f000                	fsw	fs0,32(s0)

Disassembly of section .sbss:

00002034 <acc_thread0>:
    2034:	0000                	unimp
	...

00002038 <flag>:
    2038:	0000                	unimp
	...

Disassembly of section .comment:

00000000 <.comment>:
   0:	3a434347          	fmsub.d	ft6,ft6,ft4,ft7,rmm
   4:	2820                	fld	fs0,80(s0)
   6:	2029                	jal	10 <_start+0x10>
   8:	3031                	jal	fffff814 <flag+0xffffd7dc>
   a:	322e                	fld	ft4,232(sp)
   c:	302e                	fld	ft0,232(sp)
	...

Disassembly of section .riscv.attributes:

00000000 <.riscv.attributes>:
   0:	1b41                	addi	s6,s6,-16
   2:	0000                	unimp
   4:	7200                	flw	fs0,32(a2)
   6:	7369                	lui	t1,0xffffa
   8:	01007663          	bgeu	zero,a6,14 <_start+0x14>
   c:	0011                	c.nop	4
   e:	0000                	unimp
  10:	1004                	addi	s1,sp,32
  12:	7205                	lui	tp,0xfffe1
  14:	3376                	fld	ft6,376(sp)
  16:	6932                	flw	fs2,12(sp)
  18:	7032                	flw	ft0,44(sp)
  1a:	0030                	addi	a2,sp,8

Disassembly of section .text.init:

00000000 <_start>:
   0:	00000093          	li	ra,0
   4:	00000113          	li	sp,0
   8:	00000193          	li	gp,0
   c:	00000213          	li	tp,0
  10:	00000293          	li	t0,0
  14:	00000313          	li	t1,0
  18:	00000393          	li	t2,0
  1c:	00000413          	li	s0,0
  20:	00000493          	li	s1,0
  24:	00000593          	li	a1,0
  28:	00000613          	li	a2,0
  2c:	00000693          	li	a3,0
  30:	00000713          	li	a4,0
  34:	00000793          	li	a5,0
  38:	00000813          	li	a6,0
  3c:	00000893          	li	a7,0
  40:	00000913          	li	s2,0
  44:	00000993          	li	s3,0
  48:	00000a13          	li	s4,0
  4c:	00000a93          	li	s5,0
  50:	00000b13          	li	s6,0
  54:	00000b93          	li	s7,0
  58:	00000c13          	li	s8,0
  5c:	00000c93          	li	s9,0
  60:	00000d13          	li	s10,0
  64:	00000d93          	li	s11,0
  68:	00000e13          	li	t3,0
  6c:	00000e93          	li	t4,0
  70:	00000f13          	li	t5,0
  74:	00000f93          	li	t6,0
  78:	00051663          	bnez	a0,84 <nextstack>
  7c:	10000137          	lui	sp,0x10000
  80:	ff010113          	addi	sp,sp,-16 # ffffff0 <flag+0xfffdfb8>

00000084 <nextstack>:
  84:	00050463          	beqz	a0,8c <skip>
  88:	0f000137          	lui	sp,0xf000

0000008c <skip>:
  8c:	128010ef          	jal	ra,11b4 <main>
  90:	0ec010ef          	jal	ra,117c <exit>
  94:	0000006f          	j	94 <skip+0x8>
